target datalayout = "e-m:e-p270:32:32-p271:32:32-p272:64:64-i64:64-i128:128-f80:128-n8:16:32:64-S128"
target triple = "x86_64-pc-linux-gnu"

%class.mpff_manager = type <{ i32, i32, %class.svector, i32, i8, [3 x i8], %class.id_gen, [4 x %class.svector], %class.svector, %class.mpff, [8 x i8] }>
%class.id_gen = type { i32, %class.svector }
%class.svector = type { %class.vector }
%class.vector = type { ptr }
%class.mpff = type { i32, i32 }

; Function Attrs: mustprogress nounwind uwtable
define linkonce_odr hidden noundef ptr @_ZNK6vectorIjLb0EjE4dataEv(ptr noundef nonnull align 8 dereferenceable(8) %0) #5 comdat align 2 {
  %2 = alloca ptr, align 8
  store ptr %0, ptr %2, align 8, !tbaa !32
  %3 = load ptr, ptr %2, align 8
  %4 = getelementptr inbounds nuw %class.vector, ptr %3, i32 0, i32 0
  %5 = load ptr, ptr %4, align 8, !tbaa !35
  ret ptr %5
}

; Function Attrs: mustprogress uwtable
define linkonce_odr hidden noundef ptr @_ZNK12mpff_manager3sigERK4mpff(ptr noundef nonnull align 8 dereferenceable(89) %0, ptr noundef nonnull align 4 dereferenceable(8) %1) #4 comdat align 2 {
  %3 = alloca ptr, align 8
  %4 = alloca ptr, align 8
  store ptr %0, ptr %3, align 8, !tbaa !3
  store ptr %1, ptr %4, align 8, !tbaa !29
  %5 = load ptr, ptr %3, align 8
  %6 = getelementptr inbounds nuw %class.mpff_manager, ptr %5, i32 0, i32 2
  %7 = call noundef ptr @_ZNK6vectorIjLb0EjE4dataEv(ptr noundef nonnull align 8 dereferenceable(8) %6)
  %8 = load ptr, ptr %4, align 8, !tbaa !29
  %9 = load i32, ptr %8, align 4
  %10 = lshr i32 %9, 1
  %11 = getelementptr inbounds nuw %class.mpff_manager, ptr %5, i32 0, i32 0
  %12 = load i32, ptr %11, align 8, !tbaa !10
  %13 = mul i32 %10, %12
  %14 = zext i32 %13 to i64
  %15 = getelementptr inbounds nuw i32, ptr %7, i64 %14
  ret ptr %15
}

; Function Attrs: mustprogress nounwind uwtable
define linkonce_odr hidden noundef zeroext i1 @_ZN12mpff_manager7is_zeroERK4mpff(ptr noundef nonnull align 4 dereferenceable(8) %0) #5 comdat align 2 {
  %2 = alloca ptr, align 8
  store ptr %0, ptr %2, align 8, !tbaa !29
  %3 = load ptr, ptr %2, align 8, !tbaa !29
  %4 = load i32, ptr %3, align 4
  %5 = lshr i32 %4, 1
  %6 = icmp eq i32 %5, 0
  ret i1 %6
}

; Function Attrs: mustprogress uwtable
define hidden noundef zeroext i1 @_ZNK12mpff_manager2eqERK4mpffS2_(ptr noundef nonnull align 8 dereferenceable(89) %0, ptr noundef nonnull align 4 dereferenceable(8) %1, ptr noundef nonnull align 4 dereferenceable(8) %2) #4 align 2 {
  %4 = alloca i1, align 1
  %5 = alloca ptr, align 8
  %6 = alloca ptr, align 8
  %7 = alloca ptr, align 8
  %8 = alloca ptr, align 8
  %9 = alloca ptr, align 8
  %10 = alloca i32, align 4
  %11 = alloca i32, align 4
  store ptr %0, ptr %5, align 8, !tbaa !3
  store ptr %1, ptr %6, align 8, !tbaa !29
  store ptr %2, ptr %7, align 8, !tbaa !29
  %12 = load ptr, ptr %5, align 8
  %13 = load ptr, ptr %6, align 8, !tbaa !29
  %14 = call noundef zeroext i1 @_ZN12mpff_manager7is_zeroERK4mpff(ptr noundef nonnull align 4 dereferenceable(8) %13)
  br i1 %14, label %15, label %19

15:                                               ; preds = %3
  %16 = load ptr, ptr %7, align 8, !tbaa !29
  %17 = call noundef zeroext i1 @_ZN12mpff_manager7is_zeroERK4mpff(ptr noundef nonnull align 4 dereferenceable(8) %16)
  br i1 %17, label %18, label %19

18:                                               ; preds = %15
  store i1 true, ptr %4, align 1
  br label %75

19:                                               ; preds = %15, %3
  %20 = load ptr, ptr %6, align 8, !tbaa !29
  %21 = call noundef zeroext i1 @_ZN12mpff_manager7is_zeroERK4mpff(ptr noundef nonnull align 4 dereferenceable(8) %20)
  br i1 %21, label %25, label %22

22:                                               ; preds = %19
  %23 = load ptr, ptr %7, align 8, !tbaa !29
  %24 = call noundef zeroext i1 @_ZN12mpff_manager7is_zeroERK4mpff(ptr noundef nonnull align 4 dereferenceable(8) %23)
  br i1 %24, label %25, label %26

25:                                               ; preds = %22, %19
  store i1 false, ptr %4, align 1
  br label %75

26:                                               ; preds = %22
  %27 = load ptr, ptr %6, align 8, !tbaa !29
  %28 = load i32, ptr %27, align 4
  %29 = and i32 %28, 1
  %30 = load ptr, ptr %7, align 8, !tbaa !29
  %31 = load i32, ptr %30, align 4
  %32 = and i32 %31, 1
  %33 = icmp ne i32 %29, %32
  br i1 %33, label %42, label %34

34:                                               ; preds = %26
  %35 = load ptr, ptr %6, align 8, !tbaa !29
  %36 = getelementptr inbounds nuw %class.mpff, ptr %35, i32 0, i32 1
  %37 = load i32, ptr %36, align 4, !tbaa !31
  %38 = load ptr, ptr %7, align 8, !tbaa !29
  %39 = getelementptr inbounds nuw %class.mpff, ptr %38, i32 0, i32 1
  %40 = load i32, ptr %39, align 4, !tbaa !31
  %41 = icmp ne i32 %37, %40
  br i1 %41, label %42, label %43

42:                                               ; preds = %34, %26
  store i1 false, ptr %4, align 1
  br label %75

43:                                               ; preds = %34
  call void @llvm.lifetime.start.p0(i64 8, ptr %8) #3
  %44 = load ptr, ptr %6, align 8, !tbaa !29
  %45 = call noundef ptr @_ZNK12mpff_manager3sigERK4mpff(ptr noundef nonnull align 8 dereferenceable(89) %12, ptr noundef nonnull align 4 dereferenceable(8) %44)
  store ptr %45, ptr %8, align 8, !tbaa !36
  call void @llvm.lifetime.start.p0(i64 8, ptr %9) #3
  %46 = load ptr, ptr %7, align 8, !tbaa !29
  %47 = call noundef ptr @_ZNK12mpff_manager3sigERK4mpff(ptr noundef nonnull align 8 dereferenceable(89) %12, ptr noundef nonnull align 4 dereferenceable(8) %46)
  store ptr %47, ptr %9, align 8, !tbaa !36
  call void @llvm.lifetime.start.p0(i64 4, ptr %10) #3
  store i32 0, ptr %10, align 4, !tbaa !8
  br label %48

48:                                               ; preds = %68, %43
  %49 = load i32, ptr %10, align 4, !tbaa !8
  %50 = getelementptr inbounds nuw %class.mpff_manager, ptr %12, i32 0, i32 0
  %51 = load i32, ptr %50, align 8, !tbaa !10
  %52 = icmp ult i32 %49, %51
  br i1 %52, label %54, label %53

53:                                               ; preds = %48
  store i32 2, ptr %11, align 4
  br label %71

54:                                               ; preds = %48
  %55 = load ptr, ptr %8, align 8, !tbaa !36
  %56 = load i32, ptr %10, align 4, !tbaa !8
  %57 = zext i32 %56 to i64
  %58 = getelementptr inbounds nuw i32, ptr %55, i64 %57
  %59 = load i32, ptr %58, align 4, !tbaa !8
  %60 = load ptr, ptr %9, align 8, !tbaa !36
  %61 = load i32, ptr %10, align 4, !tbaa !8
  %62 = zext i32 %61 to i64
  %63 = getelementptr inbounds nuw i32, ptr %60, i64 %62
  %64 = load i32, ptr %63, align 4, !tbaa !8
  %65 = icmp ne i32 %59, %64
  br i1 %65, label %66, label %67

66:                                               ; preds = %54
  store i1 false, ptr %4, align 1
  store i32 1, ptr %11, align 4
  br label %71

67:                                               ; preds = %54
  br label %68

68:                                               ; preds = %67
  %69 = load i32, ptr %10, align 4, !tbaa !8
  %70 = add i32 %69, 1
  store i32 %70, ptr %10, align 4, !tbaa !8
  br label %48, !llvm.loop !77

71:                                               ; preds = %66, %53
  call void @llvm.lifetime.end.p0(i64 4, ptr %10) #3
  %72 = load i32, ptr %11, align 4
  switch i32 %72, label %74 [
    i32 2, label %73
  ]

73:                                               ; preds = %71
  store i1 true, ptr %4, align 1
  store i32 1, ptr %11, align 4
  br label %74

74:                                               ; preds = %73, %71
  call void @llvm.lifetime.end.p0(i64 8, ptr %9) #3
  call void @llvm.lifetime.end.p0(i64 8, ptr %8) #3
  br label %75

75:                                               ; preds = %74, %42, %25, %18
  %76 = load i1, ptr %4, align 1
  ret i1 %76
}