; Function Attrs: mustprogress nofree norecurse nosync nounwind willreturn memory(read, inaccessiblemem: none) uwtable
define hidden noundef zeroext i1 @_ZNK12mpff_manager2eqERK4mpffS2_(ptr noundef nonnull readonly align 8 captures(none) dereferenceable(89) %0, ptr noundef nonnull readonly align 4 captures(none) dereferenceable(8) %1, ptr noundef nonnull readonly align 4 captures(none) dereferenceable(8) %2) local_unnamed_addr #10 align 2 {
  %4 = load i32, ptr %1, align 4
  %5 = icmp ult i32 %4, 2
  %6 = load i32, ptr %2, align 4
  %7 = icmp ult i32 %6, 2
  %brmerge = select i1 %5, i1 true, i1 %7
  %.mux = select i1 %5, i1 %7, i1 false
  br i1 %brmerge, label %.critedge, label %8

8:                                                ; preds = %3
  %9 = xor i32 %6, %4
  %10 = and i32 %9, 1
  %.not = icmp eq i32 %10, 0
  br i1 %.not, label %11, label %.critedge

11:                                               ; preds = %8
  %12 = getelementptr inbounds nuw i8, ptr %1, i64 4
  %13 = load i32, ptr %12, align 4, !tbaa !35
  %14 = getelementptr inbounds nuw i8, ptr %2, i64 4
  %15 = load i32, ptr %14, align 4, !tbaa !35
  %.not20 = icmp eq i32 %13, %15
  br i1 %.not20, label %16, label %.critedge

16:                                               ; preds = %11
  %17 = getelementptr inbounds nuw i8, ptr %0, i64 8
  %18 = load ptr, ptr %17, align 8, !tbaa !3
  %19 = lshr i32 %4, 1
  %20 = load i32, ptr %0, align 8, !tbaa !13
  %21 = mul i32 %20, %19
  %22 = zext i32 %21 to i64
  %23 = getelementptr inbounds nuw i32, ptr %18, i64 %22
  %24 = lshr i32 %6, 1
  %25 = mul i32 %20, %24
  %26 = zext i32 %25 to i64
  %27 = getelementptr inbounds nuw i32, ptr %18, i64 %26
  %.not22.not23.not = icmp eq i32 %20, 0
  br i1 %.not22.not23.not, label %.critedge, label %.lr.ph.preheader

.lr.ph.preheader:                                 ; preds = %16
  %wide.trip.count = zext i32 %20 to i64
  br label %.lr.ph

.lr.ph:                                           ; preds = %.lr.ph, %.lr.ph.preheader
  %indvars.iv = phi i64 [ 0, %.lr.ph.preheader ], [ %indvars.iv.next, %.lr.ph ]
  %28 = getelementptr inbounds nuw i32, ptr %23, i64 %indvars.iv
  %29 = load i32, ptr %28, align 4, !tbaa !21
  %30 = getelementptr inbounds nuw i32, ptr %27, i64 %indvars.iv
  %31 = load i32, ptr %30, align 4, !tbaa !21
  %.not21 = icmp eq i32 %29, %31
  %indvars.iv.next = add nuw nsw i64 %indvars.iv, 1
  %exitcond.not = icmp ne i64 %indvars.iv.next, %wide.trip.count
  %or.cond.not = select i1 %.not21, i1 %exitcond.not, i1 false
  br i1 %or.cond.not, label %.lr.ph, label %.critedge, !llvm.loop !58

.critedge:                                        ; preds = %.lr.ph, %3, %16, %8, %11
  %.019 = phi i1 [ false, %11 ], [ false, %8 ], [ true, %16 ], [ %.mux, %3 ], [ %.not21, %.lr.ph ]
  ret i1 %.019
}